target datalayout = "e-m:e-p270:32:32-p271:32:32-p272:64:64-i64:64-i128:128-f80:128-n8:16:32:64-S128"
target triple = "x86_64-pc-linux-gnu"

%struct.lv_ll_t = type { i32, ptr, ptr }
%struct.lv_sdl_window_t = type { ptr, ptr, ptr, ptr, ptr, ptr, ptr, ptr, ptr, i64, float, i8 }
%struct._lv_display_t = type { i32, i32, i32, i32, i32, i32, i32, ptr, ptr, ptr, ptr, ptr, i32, i32, i8, i32, i16, i32, [32 x %struct.lv_area_t], [32 x i8], i32, i32, %struct.lv_ll_t, %struct._lv_draw_buf_t, %struct._lv_draw_buf_t, ptr, ptr, ptr, ptr, ptr, ptr, ptr, ptr, ptr, ptr, i32, i8, ptr, ptr, %struct.lv_event_list_t, i8, ptr, ptr, i32, %struct.lv_area_t }
%struct._lv_draw_buf_t = type { %struct.lv_image_header_t, i32, ptr, ptr, ptr }
%struct.lv_image_header_t = type <{ i64, i32 }>
%struct.lv_event_list_t = type { %struct._lv_array_t, i8 }
%struct._lv_array_t = type { ptr, i32, i32, i32, i8 }
%struct.lv_area_t = type { i32, i32, i32, i32 }

; Function Attrs: nounwind uwtable
define internal void @sdl_draw_buf_free(ptr noundef %0) #0 {
  %2 = alloca ptr, align 8
  store ptr %0, ptr %2, align 8, !tbaa !11
  %3 = load ptr, ptr %2, align 8, !tbaa !11
  call void @free(ptr noundef %3) #8
  ret void
}

; Function Attrs: inlinehint nounwind uwtable
define internal i32 @sdl_render_mode() #3 {
  ret i32 1
}

; Function Attrs: inlinehint nounwind uwtable
define internal void @lv_memzero(ptr noundef %0, i64 noundef %1) #3 {
  %3 = alloca ptr, align 8
  %4 = alloca i64, align 8
  store ptr %0, ptr %3, align 8, !tbaa !11
  store i64 %1, ptr %4, align 8, !tbaa !52
  %5 = load ptr, ptr %3, align 8, !tbaa !11
  %6 = load i64, ptr %4, align 8, !tbaa !52
  call void @lv_memset(ptr noundef %5, i8 noundef zeroext 0, i64 noundef %6)
  ret void
}

; Function Attrs: nounwind uwtable
define internal ptr @sdl_draw_buf_realloc_aligned(ptr noundef %0, i64 noundef %1) #0 {
  %3 = alloca ptr, align 8
  %4 = alloca i64, align 8
  store ptr %0, ptr %3, align 8, !tbaa !11
  store i64 %1, ptr %4, align 8, !tbaa !52
  %5 = load ptr, ptr %3, align 8, !tbaa !11
  %6 = icmp ne ptr %5, null
  br i1 %6, label %7, label %9

7:                                                ; preds = %2
  %8 = load ptr, ptr %3, align 8, !tbaa !11
  call void @sdl_draw_buf_free(ptr noundef %8)
  br label %9

9:                                                ; preds = %7, %2
  %10 = load i64, ptr %4, align 8, !tbaa !52
  %11 = add i64 %10, 7
  %12 = and i64 %11, -8
  %13 = call noalias align 8 ptr @aligned_alloc(i64 noundef 8, i64 noundef %12) #10
  ret ptr %13
}

; Function Attrs: nounwind uwtable
define internal void @texture_resize(ptr noundef %0) #0 {
  %2 = alloca ptr, align 8
  %3 = alloca i32, align 4
  %4 = alloca ptr, align 8
  %5 = alloca i32, align 4
  store ptr %0, ptr %2, align 8, !tbaa !11
  call void @llvm.lifetime.start.p0(i64 4, ptr %3) #8
  %6 = load ptr, ptr %2, align 8, !tbaa !11
  %7 = getelementptr inbounds nuw %struct._lv_display_t, ptr %6, i32 0, i32 0
  %8 = load i32, ptr %7, align 8, !tbaa !18
  %9 = load ptr, ptr %2, align 8, !tbaa !11
  %10 = call i32 @lv_display_get_color_format(ptr noundef %9)
  %11 = call i32 @lv_draw_buf_width_to_stride(i32 noundef %8, i32 noundef %10)
  store i32 %11, ptr %3, align 4, !tbaa !3
  call void @llvm.lifetime.start.p0(i64 8, ptr %4) #8
  %12 = load ptr, ptr %2, align 8, !tbaa !11
  %13 = call ptr @lv_display_get_driver_data(ptr noundef %12)
  store ptr %13, ptr %4, align 8, !tbaa !11
  %14 = load ptr, ptr %4, align 8, !tbaa !11
  %15 = getelementptr inbounds nuw %struct.lv_sdl_window_t, ptr %14, i32 0, i32 3
  %16 = load ptr, ptr %15, align 8, !tbaa !26
  %17 = load i32, ptr %3, align 4, !tbaa !3
  %18 = load ptr, ptr %2, align 8, !tbaa !11
  %19 = getelementptr inbounds nuw %struct._lv_display_t, ptr %18, i32 0, i32 1
  %20 = load i32, ptr %19, align 4, !tbaa !28
  %21 = mul i32 %17, %20
  %22 = zext i32 %21 to i64
  %23 = call ptr @sdl_draw_buf_realloc_aligned(ptr noundef %16, i64 noundef %22)
  %24 = load ptr, ptr %4, align 8, !tbaa !11
  %25 = getelementptr inbounds nuw %struct.lv_sdl_window_t, ptr %24, i32 0, i32 3
  store ptr %23, ptr %25, align 8, !tbaa !26
  %26 = load ptr, ptr %4, align 8, !tbaa !11
  %27 = getelementptr inbounds nuw %struct.lv_sdl_window_t, ptr %26, i32 0, i32 3
  %28 = load ptr, ptr %27, align 8, !tbaa !26
  %29 = load i32, ptr %3, align 4, !tbaa !3
  %30 = load ptr, ptr %2, align 8, !tbaa !11
  %31 = getelementptr inbounds nuw %struct._lv_display_t, ptr %30, i32 0, i32 1
  %32 = load i32, ptr %31, align 4, !tbaa !28
  %33 = mul i32 %29, %32
  %34 = zext i32 %33 to i64
  call void @lv_memzero(ptr noundef %28, i64 noundef %34)
  %35 = call i32 @sdl_render_mode()
  %36 = icmp eq i32 %35, 0
  br i1 %36, label %37, label %43

37:                                               ; preds = %1
  %38 = load ptr, ptr %4, align 8, !tbaa !11
  %39 = getelementptr inbounds nuw %struct.lv_sdl_window_t, ptr %38, i32 0, i32 3
  %40 = load ptr, ptr %39, align 8, !tbaa !26
  %41 = load ptr, ptr %4, align 8, !tbaa !11
  %42 = getelementptr inbounds nuw %struct.lv_sdl_window_t, ptr %41, i32 0, i32 5
  store ptr %40, ptr %42, align 8, !tbaa !47
  br label %56

43:                                               ; preds = %1
  %44 = load ptr, ptr %2, align 8, !tbaa !11
  %45 = load ptr, ptr %4, align 8, !tbaa !11
  %46 = getelementptr inbounds nuw %struct.lv_sdl_window_t, ptr %45, i32 0, i32 3
  %47 = load ptr, ptr %46, align 8, !tbaa !26
  %48 = load ptr, ptr %4, align 8, !tbaa !11
  %49 = getelementptr inbounds nuw %struct.lv_sdl_window_t, ptr %48, i32 0, i32 4
  %50 = load ptr, ptr %49, align 8, !tbaa !27
  %51 = load i32, ptr %3, align 4, !tbaa !3
  %52 = load ptr, ptr %2, align 8, !tbaa !11
  %53 = getelementptr inbounds nuw %struct._lv_display_t, ptr %52, i32 0, i32 1
  %54 = load i32, ptr %53, align 4, !tbaa !28
  %55 = mul i32 %51, %54
  call void @lv_display_set_buffers(ptr noundef %44, ptr noundef %47, ptr noundef %50, i32 noundef %55, i32 noundef 1)
  br label %56

56:                                               ; preds = %43, %37
  %57 = load ptr, ptr %4, align 8, !tbaa !11
  %58 = getelementptr inbounds nuw %struct.lv_sdl_window_t, ptr %57, i32 0, i32 2
  %59 = load ptr, ptr %58, align 8, !tbaa !43
  %60 = icmp ne ptr %59, null
  br i1 %60, label %61, label %65

61:                                               ; preds = %56
  %62 = load ptr, ptr %4, align 8, !tbaa !11
  %63 = getelementptr inbounds nuw %struct.lv_sdl_window_t, ptr %62, i32 0, i32 2
  %64 = load ptr, ptr %63, align 8, !tbaa !43
  call void @SDL_DestroyTexture(ptr noundef %64)
  br label %65

65:                                               ; preds = %61, %56
  call void @llvm.lifetime.start.p0(i64 4, ptr %5) #8
  store i32 353701890, ptr %5, align 4, !tbaa !3
  %66 = load ptr, ptr %4, align 8, !tbaa !11
  %67 = getelementptr inbounds nuw %struct.lv_sdl_window_t, ptr %66, i32 0, i32 1
  %68 = load ptr, ptr %67, align 8, !tbaa !44
  %69 = load i32, ptr %5, align 4, !tbaa !3
  %70 = load ptr, ptr %2, align 8, !tbaa !11
  %71 = getelementptr inbounds nuw %struct._lv_display_t, ptr %70, i32 0, i32 0
  %72 = load i32, ptr %71, align 8, !tbaa !18
  %73 = load ptr, ptr %2, align 8, !tbaa !11
  %74 = getelementptr inbounds nuw %struct._lv_display_t, ptr %73, i32 0, i32 1
  %75 = load i32, ptr %74, align 4, !tbaa !28
  %76 = call ptr @SDL_CreateTexture(ptr noundef %68, i32 noundef %69, i32 noundef 0, i32 noundef %72, i32 noundef %75)
  %77 = load ptr, ptr %4, align 8, !tbaa !11
  %78 = getelementptr inbounds nuw %struct.lv_sdl_window_t, ptr %77, i32 0, i32 2
  store ptr %76, ptr %78, align 8, !tbaa !43
  %79 = load ptr, ptr %4, align 8, !tbaa !11
  %80 = getelementptr inbounds nuw %struct.lv_sdl_window_t, ptr %79, i32 0, i32 2
  %81 = load ptr, ptr %80, align 8, !tbaa !43
  %82 = call i32 @SDL_SetTextureBlendMode(ptr noundef %81, i32 noundef 1)
  call void @llvm.lifetime.end.p0(i64 4, ptr %5) #8
  call void @llvm.lifetime.end.p0(i64 8, ptr %4) #8
  call void @llvm.lifetime.end.p0(i64 4, ptr %3) #8
  ret void
}