; Function Attrs: nounwind uwtable
define internal fastcc void @texture_resize(ptr noundef %0) unnamed_addr #0 {
  %2 = load i32, ptr %0, align 8, !tbaa !11
  %3 = tail call i32 @lv_display_get_color_format(ptr noundef nonnull %0) #6
  %4 = tail call i32 @lv_draw_buf_width_to_stride(i32 noundef %2, i32 noundef %3) #6
  %5 = tail call ptr @lv_display_get_driver_data(ptr noundef nonnull %0) #6
  %6 = getelementptr inbounds nuw i8, ptr %5, i64 24
  %7 = load ptr, ptr %6, align 8, !tbaa !24
  %8 = getelementptr inbounds nuw i8, ptr %0, i64 4
  %9 = load i32, ptr %8, align 4, !tbaa !21
  %10 = mul i32 %9, %4
  %11 = zext i32 %10 to i64
  %.not.i = icmp eq ptr %7, null
  br i1 %.not.i, label %sdl_draw_buf_realloc_aligned.exit, label %12

12:                                               ; preds = %1
  tail call void @free(ptr noundef nonnull %7) #6
  %.pre = load i32, ptr %8, align 4, !tbaa !21
  %.pre24 = mul i32 %.pre, %4
  %.pre25 = zext i32 %.pre24 to i64
  br label %sdl_draw_buf_realloc_aligned.exit

sdl_draw_buf_realloc_aligned.exit:                ; preds = %1, %12
  %.pre-phi26 = phi i64 [ %11, %1 ], [ %.pre25, %12 ]
  %13 = add nuw nsw i64 %11, 7
  %14 = and i64 %13, 8589934584
  %15 = tail call noalias noundef align 8 ptr @aligned_alloc(i64 noundef 8, i64 noundef %14) #8
  store ptr %15, ptr %6, align 8, !tbaa !24
  tail call void @lv_memset(ptr noundef %15, i8 noundef zeroext 0, i64 noundef range(i64 0, 4294967296) %.pre-phi26) #6
  %16 = load ptr, ptr %6, align 8, !tbaa !24
  %17 = getelementptr inbounds nuw i8, ptr %5, i64 32
  %18 = load ptr, ptr %17, align 8, !tbaa !25
  %19 = load i32, ptr %8, align 4, !tbaa !21
  %20 = mul i32 %19, %4
  tail call void @lv_display_set_buffers(ptr noundef nonnull %0, ptr noundef %16, ptr noundef %18, i32 noundef %20, i32 noundef 1) #6
  %21 = getelementptr inbounds nuw i8, ptr %5, i64 16
  %22 = load ptr, ptr %21, align 8, !tbaa !30
  %.not = icmp eq ptr %22, null
  br i1 %.not, label %24, label %23

23:                                               ; preds = %sdl_draw_buf_realloc_aligned.exit
  tail call void @SDL_DestroyTexture(ptr noundef nonnull %22) #6
  br label %24

24:                                               ; preds = %23, %sdl_draw_buf_realloc_aligned.exit
  %25 = getelementptr inbounds nuw i8, ptr %5, i64 8
  %26 = load ptr, ptr %25, align 8, !tbaa !23
  %27 = load i32, ptr %0, align 8, !tbaa !11
  %28 = load i32, ptr %8, align 4, !tbaa !21
  %29 = tail call ptr @SDL_CreateTexture(ptr noundef %26, i32 noundef 353701890, i32 noundef 0, i32 noundef %27, i32 noundef %28) #6
  store ptr %29, ptr %21, align 8, !tbaa !30
  %30 = tail call i32 @SDL_SetTextureBlendMode(ptr noundef %29, i32 noundef 1) #6
  ret void
}